target datalayout = "e-m:e-p270:32:32-p271:32:32-p272:64:64-i64:64-i128:128-f80:128-n8:16:32:64-S128"
target triple = "x86_64-unknown-linux-gnu"

%struct.b3Int4 = type { %union.anon }
%union.anon = type { %struct.anon }
%struct.anon = type { i32, i32, i32, i32 }
%class.b3Vector3 = type { %union.anon.33 }
%union.anon.33 = type { [4 x float] }
%struct.b3Contact4 = type { %struct.b3Contact4Data }
%struct.b3Contact4Data = type { [4 x %class.b3Vector3], %class.b3Vector3, i16, i16, i32, i32, i32, i32, i32, i32, i32 }
%struct.b3RigidBodyData = type { %class.b3Vector3, %class.b3Quaternion, %class.b3Vector3, %class.b3Vector3, i32, float, float, float }
%class.b3Quaternion = type { %class.b3QuadWord }
%class.b3QuadWord = type { %union.anon.35 }
%union.anon.35 = type { [4 x float] }
%struct.anon.34 = type { float, float, float, float }
%struct.b3SortData = type { %union.anon.37, %union.anon.38 }
%union.anon.37 = type { i32 }
%union.anon.38 = type { i32 }

; Function Attrs: mustprogress nounwind uwtable
define dso_local void @_Z14SetSortDataCPUP10b3Contact4P15b3RigidBodyDataP10b3SortDataifRK6b3Int4i(ptr noundef %gContact, ptr noundef %gBodies, ptr noundef %gSortDataOut, i32 noundef %nContacts, float noundef %scale, ptr noundef nonnull align 16 dereferenceable(16) %nSplit, i32 noundef %staticIdx) #4 {
entry:
  %gContact.addr = alloca ptr, align 8
  %gBodies.addr = alloca ptr, align 8
  %gSortDataOut.addr = alloca ptr, align 8
  %nContacts.addr = alloca i32, align 4
  %scale.addr = alloca float, align 4
  %nSplit.addr = alloca ptr, align 8
  %staticIdx.addr = alloca i32, align 4
  %gIdx = alloca i32, align 4
  %aPtrAndSignBit = alloca i32, align 4
  %bPtrAndSignBit = alloca i32, align 4
  %aIdx = alloca i32, align 4
  %bIdx = alloca i32, align 4
  %aStatic = alloca i8, align 1
  %idx = alloca i32, align 4
  %p = alloca %class.b3Vector3, align 16
  %xIdx = alloca i32, align 4
  %yIdx = alloca i32, align 4
  %zIdx = alloca i32, align 4
  %newIndex = alloca i32, align 4
  store ptr %gContact, ptr %gContact.addr, align 8
  store ptr %gBodies, ptr %gBodies.addr, align 8
  store ptr %gSortDataOut, ptr %gSortDataOut.addr, align 8
  store i32 %nContacts, ptr %nContacts.addr, align 4
  store float %scale, ptr %scale.addr, align 4
  store ptr %nSplit, ptr %nSplit.addr, align 8
  store i32 %staticIdx, ptr %staticIdx.addr, align 4
  store i32 0, ptr %gIdx, align 4
  br label %for.cond

for.cond:                                         ; preds = %for.inc, %entry
  %0 = load i32, ptr %gIdx, align 4
  %1 = load i32, ptr %nContacts.addr, align 4
  %cmp = icmp slt i32 %0, %1
  br i1 %cmp, label %for.body, label %for.end

for.body:                                         ; preds = %for.cond
  %2 = load i32, ptr %gIdx, align 4
  %3 = load i32, ptr %nContacts.addr, align 4
  %cmp1 = icmp slt i32 %2, %3
  br i1 %cmp1, label %if.then, label %if.else

if.then:                                          ; preds = %for.body
  %4 = load ptr, ptr %gContact.addr, align 8
  %5 = load i32, ptr %gIdx, align 4
  %idxprom = sext i32 %5 to i64
  %arrayidx = getelementptr inbounds %struct.b3Contact4, ptr %4, i64 %idxprom
  %m_bodyAPtrAndSignBit = getelementptr inbounds %struct.b3Contact4Data, ptr %arrayidx, i32 0, i32 5
  %6 = load i32, ptr %m_bodyAPtrAndSignBit, align 8
  store i32 %6, ptr %aPtrAndSignBit, align 4
  %7 = load ptr, ptr %gContact.addr, align 8
  %8 = load i32, ptr %gIdx, align 4
  %idxprom2 = sext i32 %8 to i64
  %arrayidx3 = getelementptr inbounds %struct.b3Contact4, ptr %7, i64 %idxprom2
  %m_bodyBPtrAndSignBit = getelementptr inbounds %struct.b3Contact4Data, ptr %arrayidx3, i32 0, i32 6
  %9 = load i32, ptr %m_bodyBPtrAndSignBit, align 4
  store i32 %9, ptr %bPtrAndSignBit, align 4
  %10 = load i32, ptr %aPtrAndSignBit, align 4
  %11 = call i32 @llvm.abs.i32(i32 %10, i1 true)
  store i32 %11, ptr %aIdx, align 4
  %12 = load i32, ptr %bPtrAndSignBit, align 4
  %13 = call i32 @llvm.abs.i32(i32 %12, i1 true)
  store i32 %13, ptr %bIdx, align 4
  %14 = load i32, ptr %aPtrAndSignBit, align 4
  %cmp4 = icmp slt i32 %14, 0
  br i1 %cmp4, label %lor.end, label %lor.rhs

lor.rhs:                                          ; preds = %if.then
  %15 = load i32, ptr %aPtrAndSignBit, align 4
  %16 = load i32, ptr %staticIdx.addr, align 4
  %cmp5 = icmp eq i32 %15, %16
  br label %lor.end

lor.end:                                          ; preds = %lor.rhs, %if.then
  %17 = phi i1 [ true, %if.then ], [ %cmp5, %lor.rhs ]
  %frombool = zext i1 %17 to i8
  store i8 %frombool, ptr %aStatic, align 1
  %18 = load i8, ptr %aStatic, align 1
  %tobool = trunc i8 %18 to i1
  br i1 %tobool, label %cond.true, label %cond.false

cond.true:                                        ; preds = %lor.end
  %19 = load i32, ptr %bIdx, align 4
  br label %cond.end

cond.false:                                       ; preds = %lor.end
  %20 = load i32, ptr %aIdx, align 4
  br label %cond.end

cond.end:                                         ; preds = %cond.false, %cond.true
  %cond = phi i32 [ %19, %cond.true ], [ %20, %cond.false ]
  store i32 %cond, ptr %idx, align 4
  %21 = load ptr, ptr %gBodies.addr, align 8
  %22 = load i32, ptr %idx, align 4
  %idxprom6 = sext i32 %22 to i64
  %arrayidx7 = getelementptr inbounds %struct.b3RigidBodyData, ptr %21, i64 %idxprom6
  %m_pos = getelementptr inbounds %struct.b3RigidBodyData, ptr %arrayidx7, i32 0, i32 0
  call void @llvm.memcpy.p0.p0.i64(ptr align 16 %p, ptr align 16 %m_pos, i64 16, i1 false)
  %23 = getelementptr inbounds %class.b3Vector3, ptr %p, i32 0, i32 0
  %x = getelementptr inbounds %struct.anon.34, ptr %23, i32 0, i32 0
  %24 = load float, ptr %x, align 16
  %25 = getelementptr inbounds %class.b3Vector3, ptr %p, i32 0, i32 0
  %x8 = getelementptr inbounds %struct.anon.34, ptr %25, i32 0, i32 0
  %26 = load float, ptr %x8, align 16
  %cmp9 = fcmp olt float %26, 0.000000e+00
  %cond10 = select i1 %cmp9, float 1.000000e+00, float 0.000000e+00
  %sub = fsub float %24, %cond10
  %27 = load float, ptr %scale.addr, align 4
  %mul = fmul float %sub, %27
  %conv = fptosi float %mul to i32
  %28 = load ptr, ptr %nSplit.addr, align 8
  %29 = getelementptr inbounds %struct.b3Int4, ptr %28, i32 0, i32 0
  %x11 = getelementptr inbounds %struct.anon, ptr %29, i32 0, i32 0
  %30 = load i32, ptr %x11, align 16
  %sub12 = sub nsw i32 %30, 1
  %and = and i32 %conv, %sub12
  store i32 %and, ptr %xIdx, align 4
  %31 = getelementptr inbounds %class.b3Vector3, ptr %p, i32 0, i32 0
  %y = getelementptr inbounds %struct.anon.34, ptr %31, i32 0, i32 1
  %32 = load float, ptr %y, align 4
  %33 = getelementptr inbounds %class.b3Vector3, ptr %p, i32 0, i32 0
  %y13 = getelementptr inbounds %struct.anon.34, ptr %33, i32 0, i32 1
  %34 = load float, ptr %y13, align 4
  %cmp14 = fcmp olt float %34, 0.000000e+00
  %cond15 = select i1 %cmp14, float 1.000000e+00, float 0.000000e+00
  %sub16 = fsub float %32, %cond15
  %35 = load float, ptr %scale.addr, align 4
  %mul17 = fmul float %sub16, %35
  %conv18 = fptosi float %mul17 to i32
  %36 = load ptr, ptr %nSplit.addr, align 8
  %37 = getelementptr inbounds %struct.b3Int4, ptr %36, i32 0, i32 0
  %y19 = getelementptr inbounds %struct.anon, ptr %37, i32 0, i32 1
  %38 = load i32, ptr %y19, align 4
  %sub20 = sub nsw i32 %38, 1
  %and21 = and i32 %conv18, %sub20
  store i32 %and21, ptr %yIdx, align 4
  %39 = getelementptr inbounds %class.b3Vector3, ptr %p, i32 0, i32 0
  %z = getelementptr inbounds %struct.anon.34, ptr %39, i32 0, i32 2
  %40 = load float, ptr %z, align 8
  %41 = getelementptr inbounds %class.b3Vector3, ptr %p, i32 0, i32 0
  %z22 = getelementptr inbounds %struct.anon.34, ptr %41, i32 0, i32 2
  %42 = load float, ptr %z22, align 8
  %cmp23 = fcmp olt float %42, 0.000000e+00
  %cond24 = select i1 %cmp23, float 1.000000e+00, float 0.000000e+00
  %sub25 = fsub float %40, %cond24
  %43 = load float, ptr %scale.addr, align 4
  %mul26 = fmul float %sub25, %43
  %conv27 = fptosi float %mul26 to i32
  %44 = load ptr, ptr %nSplit.addr, align 8
  %45 = getelementptr inbounds %struct.b3Int4, ptr %44, i32 0, i32 0
  %z28 = getelementptr inbounds %struct.anon, ptr %45, i32 0, i32 2
  %46 = load i32, ptr %z28, align 8
  %sub29 = sub nsw i32 %46, 1
  %and30 = and i32 %conv27, %sub29
  store i32 %and30, ptr %zIdx, align 4
  %47 = load i32, ptr %xIdx, align 4
  %48 = load i32, ptr %yIdx, align 4
  %49 = load ptr, ptr %nSplit.addr, align 8
  %50 = getelementptr inbounds %struct.b3Int4, ptr %49, i32 0, i32 0
  %x31 = getelementptr inbounds %struct.anon, ptr %50, i32 0, i32 0
  %51 = load i32, ptr %x31, align 16
  %mul32 = mul nsw i32 %48, %51
  %add = add nsw i32 %47, %mul32
  %52 = load i32, ptr %zIdx, align 4
  %53 = load ptr, ptr %nSplit.addr, align 8
  %54 = getelementptr inbounds %struct.b3Int4, ptr %53, i32 0, i32 0
  %x33 = getelementptr inbounds %struct.anon, ptr %54, i32 0, i32 0
  %55 = load i32, ptr %x33, align 16
  %mul34 = mul nsw i32 %52, %55
  %56 = load ptr, ptr %nSplit.addr, align 8
  %57 = getelementptr inbounds %struct.b3Int4, ptr %56, i32 0, i32 0
  %y35 = getelementptr inbounds %struct.anon, ptr %57, i32 0, i32 1
  %58 = load i32, ptr %y35, align 4
  %mul36 = mul nsw i32 %mul34, %58
  %add37 = add nsw i32 %add, %mul36
  store i32 %add37, ptr %newIndex, align 4
  %59 = load i32, ptr %newIndex, align 4
  %60 = load ptr, ptr %gSortDataOut.addr, align 8
  %61 = load i32, ptr %gIdx, align 4
  %idxprom38 = sext i32 %61 to i64
  %arrayidx39 = getelementptr inbounds %struct.b3SortData, ptr %60, i64 %idxprom38
  %62 = getelementptr inbounds %struct.b3SortData, ptr %arrayidx39, i32 0, i32 0
  store i32 %59, ptr %62, align 4
  %63 = load i32, ptr %gIdx, align 4
  %64 = load ptr, ptr %gSortDataOut.addr, align 8
  %65 = load i32, ptr %gIdx, align 4
  %idxprom40 = sext i32 %65 to i64
  %arrayidx41 = getelementptr inbounds %struct.b3SortData, ptr %64, i64 %idxprom40
  %66 = getelementptr inbounds %struct.b3SortData, ptr %arrayidx41, i32 0, i32 1
  store i32 %63, ptr %66, align 4
  br label %if.end

if.else:                                          ; preds = %for.body
  %67 = load ptr, ptr %gSortDataOut.addr, align 8
  %68 = load i32, ptr %gIdx, align 4
  %idxprom42 = sext i32 %68 to i64
  %arrayidx43 = getelementptr inbounds %struct.b3SortData, ptr %67, i64 %idxprom42
  %69 = getelementptr inbounds %struct.b3SortData, ptr %arrayidx43, i32 0, i32 0
  store i32 -1, ptr %69, align 4
  br label %if.end

if.end:                                           ; preds = %if.else, %cond.end
  br label %for.inc

for.inc:                                          ; preds = %if.end
  %70 = load i32, ptr %gIdx, align 4
  %inc = add nsw i32 %70, 1
  store i32 %inc, ptr %gIdx, align 4
  br label %for.cond, !llvm.loop !16

for.end:                                          ; preds = %for.cond
  ret void
}