; Function Attrs: mustprogress nofree norecurse nosync nounwind memory(argmem: readwrite) uwtable
define dso_local void @_Z14SetSortDataCPUP10b3Contact4P15b3RigidBodyDataP10b3SortDataifRK6b3Int4i(ptr nocapture noundef readonly %gContact, ptr nocapture noundef readonly %gBodies, ptr nocapture noundef writeonly %gSortDataOut, i32 noundef %nContacts, float noundef %scale, ptr nocapture noundef nonnull readonly align 16 dereferenceable(16) %nSplit, i32 noundef %staticIdx) local_unnamed_addr #7 {
entry:
  %cmp25 = icmp sgt i32 %nContacts, 0
  br i1 %cmp25, label %if.then.lr.ph, label %for.end

if.then.lr.ph:                                    ; preds = %entry
  %y19 = getelementptr inbounds i8, ptr %nSplit, i64 4
  %z28 = getelementptr inbounds i8, ptr %nSplit, i64 8
  %wide.trip.count = zext nneg i32 %nContacts to i64
  br label %if.then

if.then:                                          ; preds = %if.then.lr.ph, %if.then
  %indvars.iv = phi i64 [ 0, %if.then.lr.ph ], [ %indvars.iv.next, %if.then ]
  %arrayidx = getelementptr inbounds %struct.b3Contact4, ptr %gContact, i64 %indvars.iv
  %m_bodyAPtrAndSignBit = getelementptr inbounds i8, ptr %arrayidx, i64 88
  %0 = load i32, ptr %m_bodyAPtrAndSignBit, align 8
  %m_bodyBPtrAndSignBit = getelementptr inbounds i8, ptr %arrayidx, i64 92
  %1 = load i32, ptr %m_bodyBPtrAndSignBit, align 4
  %2 = tail call i32 @llvm.abs.i32(i32 %0, i1 true)
  %3 = tail call i32 @llvm.abs.i32(i32 %1, i1 true)
  %cmp4 = icmp slt i32 %0, 0
  %cmp5 = icmp eq i32 %0, %staticIdx
  %4 = or i1 %cmp4, %cmp5
  %cond = select i1 %4, i32 %3, i32 %2
  %idxprom6 = zext nneg i32 %cond to i64
  %arrayidx7 = getelementptr inbounds %struct.b3RigidBodyData, ptr %gBodies, i64 %idxprom6
  %p.sroa.0.0.copyload = load float, ptr %arrayidx7, align 16
  %p.sroa.3.0.m_pos.sroa_idx = getelementptr inbounds i8, ptr %arrayidx7, i64 4
  %p.sroa.3.0.copyload = load float, ptr %p.sroa.3.0.m_pos.sroa_idx, align 4
  %p.sroa.5.0.m_pos.sroa_idx = getelementptr inbounds i8, ptr %arrayidx7, i64 8
  %p.sroa.5.0.copyload = load float, ptr %p.sroa.5.0.m_pos.sroa_idx, align 8
  %cmp9 = fcmp olt float %p.sroa.0.0.copyload, 0.000000e+00
  %cond10 = select i1 %cmp9, float 1.000000e+00, float 0.000000e+00
  %sub = fsub float %p.sroa.0.0.copyload, %cond10
  %mul = fmul float %sub, %scale
  %conv = fptosi float %mul to i32
  %5 = load i32, ptr %nSplit, align 16
  %sub12 = add nsw i32 %5, -1
  %and = and i32 %sub12, %conv
  %cmp14 = fcmp olt float %p.sroa.3.0.copyload, 0.000000e+00
  %cond15 = select i1 %cmp14, float 1.000000e+00, float 0.000000e+00
  %sub16 = fsub float %p.sroa.3.0.copyload, %cond15
  %mul17 = fmul float %sub16, %scale
  %conv18 = fptosi float %mul17 to i32
  %6 = load i32, ptr %y19, align 4
  %sub20 = add nsw i32 %6, -1
  %and21 = and i32 %sub20, %conv18
  %cmp23 = fcmp olt float %p.sroa.5.0.copyload, 0.000000e+00
  %cond24 = select i1 %cmp23, float 1.000000e+00, float 0.000000e+00
  %sub25 = fsub float %p.sroa.5.0.copyload, %cond24
  %mul26 = fmul float %sub25, %scale
  %conv27 = fptosi float %mul26 to i32
  %7 = load i32, ptr %z28, align 8
  %sub29 = add nsw i32 %7, -1
  %and30 = and i32 %sub29, %conv27
  %mul36 = mul i32 %and30, %6
  %reass.add = add i32 %mul36, %and21
  %reass.mul = mul i32 %reass.add, %5
  %add37 = add i32 %reass.mul, %and
  %arrayidx39 = getelementptr inbounds %struct.b3SortData, ptr %gSortDataOut, i64 %indvars.iv
  store i32 %add37, ptr %arrayidx39, align 4
  %8 = getelementptr inbounds i8, ptr %arrayidx39, i64 4
  %9 = trunc i64 %indvars.iv to i32
  store i32 %9, ptr %8, align 4
  %indvars.iv.next = add nuw nsw i64 %indvars.iv, 1
  %exitcond.not = icmp eq i64 %indvars.iv.next, %wide.trip.count
  br i1 %exitcond.not, label %for.end, label %if.then, !llvm.loop !17

for.end:                                          ; preds = %if.then, %entry
  ret void
}